target datalayout = "e-m:e-p270:32:32-p271:32:32-p272:64:64-i64:64-i128:128-f80:128-n8:16:32:64-S128"
target triple = "x86_64-pc-linux-gnu"

%"class.cv::ppf_match_3d::PPF3DDetector" = type <{ ptr, double, double, double, double, double, double, %"class.cv::Mat", %"class.cv::Mat", i32, [4 x i8], ptr, ptr, double, double, i8, [3 x i8], i32, i8, [7 x i8] }>
%"class.cv::Mat" = type { i32, i32, i32, i32, ptr, ptr, ptr, ptr, ptr, ptr, %"struct.cv::MatSize", %"struct.cv::MatStep" }
%"struct.cv::MatSize" = type { ptr }
%"struct.cv::MatStep" = type { ptr, [2 x i64] }

; Function Attrs: mustprogress uwtable
define void @_ZN2cv12ppf_match_3d13PPF3DDetector19clearTrainingModelsEv(ptr noundef nonnull align 8 dereferenceable(297) %0) #4 align 2 {
  %2 = alloca ptr, align 8
  store ptr %0, ptr %2, align 8, !tbaa !3
  %3 = load ptr, ptr %2, align 8
  %4 = getelementptr inbounds nuw %"class.cv::ppf_match_3d::PPF3DDetector", ptr %3, i32 0, i32 12
  %5 = load ptr, ptr %4, align 8, !tbaa !32
  %6 = icmp ne ptr %5, null
  br i1 %6, label %7, label %11

7:                                                ; preds = %1
  %8 = getelementptr inbounds nuw %"class.cv::ppf_match_3d::PPF3DDetector", ptr %3, i32 0, i32 12
  %9 = load ptr, ptr %8, align 8, !tbaa !32
  call void @free(ptr noundef %9) #3
  %10 = getelementptr inbounds nuw %"class.cv::ppf_match_3d::PPF3DDetector", ptr %3, i32 0, i32 12
  store ptr null, ptr %10, align 8, !tbaa !32
  br label %11

11:                                               ; preds = %7, %1
  %12 = getelementptr inbounds nuw %"class.cv::ppf_match_3d::PPF3DDetector", ptr %3, i32 0, i32 11
  %13 = load ptr, ptr %12, align 8, !tbaa !31
  %14 = icmp ne ptr %13, null
  br i1 %14, label %15, label %19

15:                                               ; preds = %11
  %16 = getelementptr inbounds nuw %"class.cv::ppf_match_3d::PPF3DDetector", ptr %3, i32 0, i32 11
  %17 = load ptr, ptr %16, align 8, !tbaa !31
  call void @_ZN2cv12ppf_match_3d16hashtableDestroyEPNS0_8HSHTBL_iE(ptr noundef %17)
  %18 = getelementptr inbounds nuw %"class.cv::ppf_match_3d::PPF3DDetector", ptr %3, i32 0, i32 11
  store ptr null, ptr %18, align 8, !tbaa !31
  br label %19

19:                                               ; preds = %15, %11
  ret void
}