; Function Attrs: mustprogress uwtable
define void @_ZN2cv12ppf_match_3d13PPF3DDetector19clearTrainingModelsEv(ptr noundef nonnull align 8 captures(none) dereferenceable(297) %0) local_unnamed_addr #7 align 2 {
  %2 = getelementptr inbounds nuw i8, ptr %0, i64 264
  %3 = load ptr, ptr %2, align 8, !tbaa !42
  %.not = icmp eq ptr %3, null
  br i1 %.not, label %5, label %4

4:                                                ; preds = %1
  tail call void @free(ptr noundef nonnull %3) #27
  store ptr null, ptr %2, align 8, !tbaa !42
  br label %5

5:                                                ; preds = %4, %1
  %6 = getelementptr inbounds nuw i8, ptr %0, i64 256
  %7 = load ptr, ptr %6, align 8, !tbaa !43
  %.not2 = icmp eq ptr %7, null
  br i1 %.not2, label %9, label %8

8:                                                ; preds = %5
  tail call void @_ZN2cv12ppf_match_3d16hashtableDestroyEPNS0_8HSHTBL_iE(ptr noundef nonnull %7)
  store ptr null, ptr %6, align 8, !tbaa !43
  br label %9

9:                                                ; preds = %8, %5
  ret void
}